; Function Attrs: mustprogress nounwind uwtable
define hidden noundef ptr @_ZNK4Node11nonnull_reqEv(ptr nocapture noundef nonnull readonly align 8 dereferenceable(52) %0) local_unnamed_addr #2 align 2 {
  %2 = getelementptr inbounds i8, ptr %0, i64 24
  %3 = load i32, ptr %2, align 8
  %4 = icmp ugt i32 %3, 1
  br i1 %4, label %.lr.ph, label %._crit_edge

.lr.ph:                                           ; preds = %1
  %5 = getelementptr inbounds i8, ptr %0, i64 8
  %6 = load ptr, ptr %5, align 8
  %wide.trip.count = zext i32 %3 to i64
  br label %8

7:                                                ; preds = %8
  %indvars.iv.next = add nuw nsw i64 %indvars.iv, 1
  %exitcond.not = icmp eq i64 %indvars.iv.next, %wide.trip.count
  br i1 %exitcond.not, label %._crit_edge, label %8, !llvm.loop !19

8:                                                ; preds = %.lr.ph, %7
  %indvars.iv = phi i64 [ 1, %.lr.ph ], [ %indvars.iv.next, %7 ]
  %9 = getelementptr inbounds ptr, ptr %6, i64 %indvars.iv
  %10 = load ptr, ptr %9, align 8
  %.not = icmp eq ptr %10, null
  br i1 %.not, label %7, label %11

11:                                               ; preds = %8
  ret ptr %10

._crit_edge:                                      ; preds = %7, %1
  %12 = load ptr, ptr @g_assert_poison, align 8
  store i8 88, ptr %12, align 1
  tail call void @_Z28report_should_not_reach_herePKci(ptr noundef nonnull @.str, i32 noundef 1040) #11
  unreachable
}